target datalayout = "e-m:e-p270:32:32-p271:32:32-p272:64:64-i64:64-i128:128-f80:128-n8:16:32:64-S128"
target triple = "x86_64-pc-linux-gnu"

%struct.gmx_ana_index_t = type { i32, ptr, i32 }

@.str.3 = private unnamed_addr constant [129 x i8] c"generated/home/dtcxzyw/WorkSpace/Projects/compilers/llvm-opt-benchmark/bench/gromacs/gromacs/src/gromacs/selection/indexutil.cpp\00", align 1
@.str.12 = private unnamed_addr constant [12 x i8] c"dest->index\00", align 1

; Function Attrs: inlinehint mustprogress uwtable
define internal void @_ZL13gmx_snew_implIiEvPKcS1_iRPT_m(ptr noundef %0, ptr noundef %1, i32 noundef %2, ptr noundef nonnull align 8 dereferenceable(8) %3, i64 noundef %4) #5 {
  %6 = alloca ptr, align 8
  %7 = alloca ptr, align 8
  %8 = alloca i32, align 4
  %9 = alloca ptr, align 8
  %10 = alloca i64, align 8
  store ptr %0, ptr %6, align 8, !tbaa !54
  store ptr %1, ptr %7, align 8, !tbaa !54
  store i32 %2, ptr %8, align 4, !tbaa !114
  store ptr %3, ptr %9, align 8, !tbaa !84
  store i64 %4, ptr %10, align 8, !tbaa !19
  %11 = load ptr, ptr %6, align 8, !tbaa !54
  %12 = load ptr, ptr %7, align 8, !tbaa !54
  %13 = load i32, ptr %8, align 4, !tbaa !114
  %14 = load i64, ptr %10, align 8, !tbaa !19
  %15 = call noundef ptr @_Z11save_callocPKcS0_imm(ptr noundef %11, ptr noundef %12, i32 noundef %13, i64 noundef %14, i64 noundef 4)
  %16 = load ptr, ptr %9, align 8, !tbaa !84
  store ptr %15, ptr %16, align 8, !tbaa !77
  ret void
}

; Function Attrs: mustprogress uwtable
define void @_Z18gmx_ana_index_copyP15gmx_ana_index_tS0_b(ptr noundef %0, ptr noundef %1, i1 noundef zeroext %2) #0 {
  %4 = alloca ptr, align 8
  %5 = alloca ptr, align 8
  %6 = alloca i8, align 1
  store ptr %0, ptr %4, align 8, !tbaa !232
  store ptr %1, ptr %5, align 8, !tbaa !232
  %7 = zext i1 %2 to i8
  store i8 %7, ptr %6, align 1, !tbaa !36
  %8 = load ptr, ptr %5, align 8, !tbaa !232
  %9 = getelementptr inbounds nuw %struct.gmx_ana_index_t, ptr %8, i32 0, i32 0
  %10 = load i32, ptr %9, align 8, !tbaa !234
  %11 = load ptr, ptr %4, align 8, !tbaa !232
  %12 = getelementptr inbounds nuw %struct.gmx_ana_index_t, ptr %11, i32 0, i32 0
  store i32 %10, ptr %12, align 8, !tbaa !234
  %13 = load i8, ptr %6, align 1, !tbaa !36, !range !298, !noundef !299
  %14 = trunc i8 %13 to i1
  br i1 %14, label %15, label %27

15:                                               ; preds = %3
  %16 = load ptr, ptr %4, align 8, !tbaa !232
  %17 = getelementptr inbounds nuw %struct.gmx_ana_index_t, ptr %16, i32 0, i32 1
  %18 = load ptr, ptr %4, align 8, !tbaa !232
  %19 = getelementptr inbounds nuw %struct.gmx_ana_index_t, ptr %18, i32 0, i32 0
  %20 = load i32, ptr %19, align 8, !tbaa !234
  %21 = sext i32 %20 to i64
  call void @_ZL13gmx_snew_implIiEvPKcS1_iRPT_m(ptr noundef @.str.12, ptr noundef @.str.3, i32 noundef 365, ptr noundef nonnull align 8 dereferenceable(8) %17, i64 noundef %21)
  %22 = load ptr, ptr %4, align 8, !tbaa !232
  %23 = getelementptr inbounds nuw %struct.gmx_ana_index_t, ptr %22, i32 0, i32 0
  %24 = load i32, ptr %23, align 8, !tbaa !234
  %25 = load ptr, ptr %4, align 8, !tbaa !232
  %26 = getelementptr inbounds nuw %struct.gmx_ana_index_t, ptr %25, i32 0, i32 2
  store i32 %24, ptr %26, align 8, !tbaa !238
  br label %27

27:                                               ; preds = %15, %3
  %28 = load ptr, ptr %4, align 8, !tbaa !232
  %29 = getelementptr inbounds nuw %struct.gmx_ana_index_t, ptr %28, i32 0, i32 0
  %30 = load i32, ptr %29, align 8, !tbaa !234
  %31 = icmp sgt i32 %30, 0
  br i1 %31, label %32, label %44

32:                                               ; preds = %27
  %33 = load ptr, ptr %4, align 8, !tbaa !232
  %34 = getelementptr inbounds nuw %struct.gmx_ana_index_t, ptr %33, i32 0, i32 1
  %35 = load ptr, ptr %34, align 8, !tbaa !236
  %36 = load ptr, ptr %5, align 8, !tbaa !232
  %37 = getelementptr inbounds nuw %struct.gmx_ana_index_t, ptr %36, i32 0, i32 1
  %38 = load ptr, ptr %37, align 8, !tbaa !236
  %39 = load ptr, ptr %4, align 8, !tbaa !232
  %40 = getelementptr inbounds nuw %struct.gmx_ana_index_t, ptr %39, i32 0, i32 0
  %41 = load i32, ptr %40, align 8, !tbaa !234
  %42 = sext i32 %41 to i64
  %43 = mul i64 %42, 4
  call void @llvm.memcpy.p0.p0.i64(ptr align 4 %35, ptr align 4 %38, i64 %43, i1 false)
  br label %44

44:                                               ; preds = %32, %27
  ret void
}

; Function Attrs: mustprogress uwtable
define void @_Z23gmx_ana_index_partitionP15gmx_ana_index_tS0_S0_S0_(ptr noundef %0, ptr noundef %1, ptr noundef %2, ptr noundef %3) #0 {
  %5 = alloca ptr, align 8
  %6 = alloca ptr, align 8
  %7 = alloca ptr, align 8
  %8 = alloca ptr, align 8
  %9 = alloca i32, align 4
  %10 = alloca i32, align 4
  %11 = alloca i32, align 4
  store ptr %0, ptr %5, align 8, !tbaa !232
  store ptr %1, ptr %6, align 8, !tbaa !232
  store ptr %2, ptr %7, align 8, !tbaa !232
  store ptr %3, ptr %8, align 8, !tbaa !232
  call void @llvm.lifetime.start.p0(i64 4, ptr %9) #19
  call void @llvm.lifetime.start.p0(i64 4, ptr %10) #19
  call void @llvm.lifetime.start.p0(i64 4, ptr %11) #19
  %12 = load ptr, ptr %5, align 8, !tbaa !232
  %13 = getelementptr inbounds nuw %struct.gmx_ana_index_t, ptr %12, i32 0, i32 1
  %14 = load ptr, ptr %13, align 8, !tbaa !236
  %15 = load ptr, ptr %8, align 8, !tbaa !232
  %16 = getelementptr inbounds nuw %struct.gmx_ana_index_t, ptr %15, i32 0, i32 0
  %17 = load i32, ptr %16, align 8, !tbaa !234
  %18 = sext i32 %17 to i64
  %19 = getelementptr inbounds i32, ptr %14, i64 %18
  %20 = load ptr, ptr %6, align 8, !tbaa !232
  %21 = getelementptr inbounds nuw %struct.gmx_ana_index_t, ptr %20, i32 0, i32 1
  store ptr %19, ptr %21, align 8, !tbaa !236
  %22 = load ptr, ptr %7, align 8, !tbaa !232
  %23 = getelementptr inbounds nuw %struct.gmx_ana_index_t, ptr %22, i32 0, i32 0
  %24 = load i32, ptr %23, align 8, !tbaa !234
  %25 = load ptr, ptr %8, align 8, !tbaa !232
  %26 = getelementptr inbounds nuw %struct.gmx_ana_index_t, ptr %25, i32 0, i32 0
  %27 = load i32, ptr %26, align 8, !tbaa !234
  %28 = sub nsw i32 %24, %27
  %29 = load ptr, ptr %6, align 8, !tbaa !232
  %30 = getelementptr inbounds nuw %struct.gmx_ana_index_t, ptr %29, i32 0, i32 0
  store i32 %28, ptr %30, align 8, !tbaa !234
  %31 = load ptr, ptr %8, align 8, !tbaa !232
  %32 = getelementptr inbounds nuw %struct.gmx_ana_index_t, ptr %31, i32 0, i32 0
  %33 = load i32, ptr %32, align 8, !tbaa !234
  %34 = sub nsw i32 %33, 1
  store i32 %34, ptr %9, align 4, !tbaa !114
  %35 = load ptr, ptr %7, align 8, !tbaa !232
  %36 = getelementptr inbounds nuw %struct.gmx_ana_index_t, ptr %35, i32 0, i32 0
  %37 = load i32, ptr %36, align 8, !tbaa !234
  %38 = sub nsw i32 %37, 1
  store i32 %38, ptr %10, align 4, !tbaa !114
  %39 = load ptr, ptr %6, align 8, !tbaa !232
  %40 = getelementptr inbounds nuw %struct.gmx_ana_index_t, ptr %39, i32 0, i32 0
  %41 = load i32, ptr %40, align 8, !tbaa !234
  %42 = sub nsw i32 %41, 1
  store i32 %42, ptr %11, align 4, !tbaa !114
  br label %43

43:                                               ; preds = %85, %4
  %44 = load i32, ptr %9, align 4, !tbaa !114
  %45 = icmp sge i32 %44, 0
  br i1 %45, label %46, label %90

46:                                               ; preds = %43
  br label %47

47:                                               ; preds = %68, %46
  %48 = load i32, ptr %10, align 4, !tbaa !114
  %49 = icmp sge i32 %48, 0
  br i1 %49, label %50, label %66

50:                                               ; preds = %47
  %51 = load ptr, ptr %7, align 8, !tbaa !232
  %52 = getelementptr inbounds nuw %struct.gmx_ana_index_t, ptr %51, i32 0, i32 1
  %53 = load ptr, ptr %52, align 8, !tbaa !236
  %54 = load i32, ptr %10, align 4, !tbaa !114
  %55 = sext i32 %54 to i64
  %56 = getelementptr inbounds i32, ptr %53, i64 %55
  %57 = load i32, ptr %56, align 4, !tbaa !114
  %58 = load ptr, ptr %8, align 8, !tbaa !232
  %59 = getelementptr inbounds nuw %struct.gmx_ana_index_t, ptr %58, i32 0, i32 1
  %60 = load ptr, ptr %59, align 8, !tbaa !236
  %61 = load i32, ptr %9, align 4, !tbaa !114
  %62 = sext i32 %61 to i64
  %63 = getelementptr inbounds i32, ptr %60, i64 %62
  %64 = load i32, ptr %63, align 4, !tbaa !114
  %65 = icmp ne i32 %57, %64
  br label %66

66:                                               ; preds = %50, %47
  %67 = phi i1 [ false, %47 ], [ %65, %50 ]
  br i1 %67, label %68, label %84

68:                                               ; preds = %66
  %69 = load ptr, ptr %7, align 8, !tbaa !232
  %70 = getelementptr inbounds nuw %struct.gmx_ana_index_t, ptr %69, i32 0, i32 1
  %71 = load ptr, ptr %70, align 8, !tbaa !236
  %72 = load i32, ptr %10, align 4, !tbaa !114
  %73 = add nsw i32 %72, -1
  store i32 %73, ptr %10, align 4, !tbaa !114
  %74 = sext i32 %72 to i64
  %75 = getelementptr inbounds i32, ptr %71, i64 %74
  %76 = load i32, ptr %75, align 4, !tbaa !114
  %77 = load ptr, ptr %6, align 8, !tbaa !232
  %78 = getelementptr inbounds nuw %struct.gmx_ana_index_t, ptr %77, i32 0, i32 1
  %79 = load ptr, ptr %78, align 8, !tbaa !236
  %80 = load i32, ptr %11, align 4, !tbaa !114
  %81 = add nsw i32 %80, -1
  store i32 %81, ptr %11, align 4, !tbaa !114
  %82 = sext i32 %80 to i64
  %83 = getelementptr inbounds i32, ptr %79, i64 %82
  store i32 %76, ptr %83, align 4, !tbaa !114
  br label %47, !llvm.loop !340

84:                                               ; preds = %66
  br label %85

85:                                               ; preds = %84
  %86 = load i32, ptr %9, align 4, !tbaa !114
  %87 = add nsw i32 %86, -1
  store i32 %87, ptr %9, align 4, !tbaa !114
  %88 = load i32, ptr %10, align 4, !tbaa !114
  %89 = add nsw i32 %88, -1
  store i32 %89, ptr %10, align 4, !tbaa !114
  br label %43, !llvm.loop !341

90:                                               ; preds = %43
  br label %91

91:                                               ; preds = %94, %90
  %92 = load i32, ptr %10, align 4, !tbaa !114
  %93 = icmp sge i32 %92, 0
  br i1 %93, label %94, label %110

94:                                               ; preds = %91
  %95 = load ptr, ptr %7, align 8, !tbaa !232
  %96 = getelementptr inbounds nuw %struct.gmx_ana_index_t, ptr %95, i32 0, i32 1
  %97 = load ptr, ptr %96, align 8, !tbaa !236
  %98 = load i32, ptr %10, align 4, !tbaa !114
  %99 = add nsw i32 %98, -1
  store i32 %99, ptr %10, align 4, !tbaa !114
  %100 = sext i32 %98 to i64
  %101 = getelementptr inbounds i32, ptr %97, i64 %100
  %102 = load i32, ptr %101, align 4, !tbaa !114
  %103 = load ptr, ptr %6, align 8, !tbaa !232
  %104 = getelementptr inbounds nuw %struct.gmx_ana_index_t, ptr %103, i32 0, i32 1
  %105 = load ptr, ptr %104, align 8, !tbaa !236
  %106 = load i32, ptr %11, align 4, !tbaa !114
  %107 = add nsw i32 %106, -1
  store i32 %107, ptr %11, align 4, !tbaa !114
  %108 = sext i32 %106 to i64
  %109 = getelementptr inbounds i32, ptr %105, i64 %108
  store i32 %102, ptr %109, align 4, !tbaa !114
  br label %91, !llvm.loop !342

110:                                              ; preds = %91
  %111 = load ptr, ptr %5, align 8, !tbaa !232
  %112 = load ptr, ptr %8, align 8, !tbaa !232
  call void @_Z18gmx_ana_index_copyP15gmx_ana_index_tS0_b(ptr noundef %111, ptr noundef %112, i1 noundef zeroext false)
  call void @llvm.lifetime.end.p0(i64 4, ptr %11) #19
  call void @llvm.lifetime.end.p0(i64 4, ptr %10) #19
  call void @llvm.lifetime.end.p0(i64 4, ptr %9) #19
  ret void
}