; Function Attrs: mustprogress nofree norecurse nosync nounwind memory(readwrite, inaccessiblemem: none) uwtable
define void @_Z23gmx_ana_index_partitionP15gmx_ana_index_tS0_S0_S0_(ptr noundef captures(none) %0, ptr noundef writeonly captures(none) initializes((0, 4), (8, 16)) %1, ptr noundef readonly captures(none) %2, ptr noundef readonly captures(none) %3) local_unnamed_addr #20 {
  %5 = getelementptr inbounds nuw i8, ptr %0, i64 8
  %6 = load ptr, ptr %5, align 8, !tbaa !108
  %7 = load i32, ptr %3, align 8, !tbaa !73
  %8 = sext i32 %7 to i64
  %9 = getelementptr inbounds i32, ptr %6, i64 %8
  %10 = getelementptr inbounds nuw i8, ptr %1, i64 8
  store ptr %9, ptr %10, align 8, !tbaa !108
  %11 = load i32, ptr %2, align 8, !tbaa !73
  %12 = sub nsw i32 %11, %7
  store i32 %12, ptr %1, align 8, !tbaa !73
  %13 = load i32, ptr %3, align 8, !tbaa !73
  %14 = load i32, ptr %2, align 8, !tbaa !73
  %15 = add nsw i32 %12, -1
  %.02739 = add nsw i32 %14, -1
  %16 = icmp sgt i32 %13, 0
  br i1 %16, label %.preheader32.lr.ph, label %.preheader

.preheader32.lr.ph:                               ; preds = %4
  %17 = getelementptr inbounds nuw i8, ptr %2, i64 8
  %18 = getelementptr inbounds nuw i8, ptr %3, i64 8
  %19 = zext nneg i32 %13 to i64
  br label %.preheader32

.preheader32:                                     ; preds = %.preheader32.lr.ph, %.critedge
  %indvars.iv51 = phi i64 [ %19, %.preheader32.lr.ph ], [ %indvars.iv.next52, %.critedge ]
  %.02742 = phi i32 [ %.02739, %.preheader32.lr.ph ], [ %.027, %.critedge ]
  %.041 = phi i32 [ %15, %.preheader32.lr.ph ], [ %.1.lcssa, %.critedge ]
  %indvars.iv.next52 = add nsw i64 %indvars.iv51, -1
  %20 = icmp sgt i32 %.02742, -1
  br i1 %20, label %.lr.ph, label %.critedge

.lr.ph:                                           ; preds = %.preheader32
  %21 = load ptr, ptr %17, align 8, !tbaa !108
  %22 = load ptr, ptr %18, align 8, !tbaa !108
  %23 = getelementptr inbounds i32, ptr %22, i64 %indvars.iv.next52
  %24 = sext i32 %.041 to i64
  %25 = xor i32 %.02742, -1
  %26 = add i32 %.041, %25
  br label %32

.preheader:                                       ; preds = %.critedge, %4
  %.0.lcssa = phi i32 [ %15, %4 ], [ %.1.lcssa, %.critedge ]
  %.027.lcssa = phi i32 [ %.02739, %4 ], [ %.027, %.critedge ]
  %27 = icmp sgt i32 %.027.lcssa, -1
  br i1 %27, label %.lr.ph48, label %._crit_edge

.lr.ph48:                                         ; preds = %.preheader
  %28 = getelementptr inbounds nuw i8, ptr %2, i64 8
  %29 = load ptr, ptr %28, align 8, !tbaa !108
  %30 = sext i32 %.0.lcssa to i64
  %31 = zext nneg i32 %.027.lcssa to i64
  br label %43

32:                                               ; preds = %.lr.ph, %37
  %indvars.iv = phi i64 [ %24, %.lr.ph ], [ %indvars.iv.next, %37 ]
  %.12833 = phi i32 [ %.02742, %.lr.ph ], [ %38, %37 ]
  %33 = zext nneg i32 %.12833 to i64
  %34 = getelementptr inbounds nuw i32, ptr %21, i64 %33
  %35 = load i32, ptr %34, align 4, !tbaa !36
  %36 = load i32, ptr %23, align 4, !tbaa !36
  %.not = icmp eq i32 %35, %36
  br i1 %.not, label %.critedge.loopexit.split.loop.exit, label %37

37:                                               ; preds = %32
  %38 = add nsw i32 %.12833, -1
  %indvars.iv.next = add nsw i64 %indvars.iv, -1
  %39 = getelementptr inbounds i32, ptr %9, i64 %indvars.iv
  store i32 %35, ptr %39, align 4, !tbaa !36
  %40 = icmp sgt i32 %.12833, 0
  br i1 %40, label %32, label %.critedge, !llvm.loop !137

.critedge.loopexit.split.loop.exit:               ; preds = %32
  %41 = trunc nsw i64 %indvars.iv to i32
  br label %.critedge

.critedge:                                        ; preds = %37, %.critedge.loopexit.split.loop.exit, %.preheader32
  %.128.lcssa = phi i32 [ %.02742, %.preheader32 ], [ %.12833, %.critedge.loopexit.split.loop.exit ], [ -1, %37 ]
  %.1.lcssa = phi i32 [ %.041, %.preheader32 ], [ %41, %.critedge.loopexit.split.loop.exit ], [ %26, %37 ]
  %.027 = add nsw i32 %.128.lcssa, -1
  %42 = icmp sgt i64 %indvars.iv51, 1
  br i1 %42, label %.preheader32, label %.preheader, !llvm.loop !138

43:                                               ; preds = %.lr.ph48, %43
  %indvars.iv56 = phi i64 [ %31, %.lr.ph48 ], [ %indvars.iv.next57, %43 ]
  %indvars.iv54 = phi i64 [ %30, %.lr.ph48 ], [ %indvars.iv.next55, %43 ]
  %indvars.iv.next57 = add nsw i64 %indvars.iv56, -1
  %44 = getelementptr inbounds nuw i32, ptr %29, i64 %indvars.iv56
  %45 = load i32, ptr %44, align 4, !tbaa !36
  %indvars.iv.next55 = add nsw i64 %indvars.iv54, -1
  %46 = getelementptr inbounds i32, ptr %9, i64 %indvars.iv54
  store i32 %45, ptr %46, align 4, !tbaa !36
  %.not65 = icmp eq i64 %indvars.iv56, 0
  br i1 %.not65, label %._crit_edge, label %43, !llvm.loop !139

._crit_edge:                                      ; preds = %43, %.preheader
  %47 = load i32, ptr %3, align 8, !tbaa !73
  store i32 %47, ptr %0, align 8, !tbaa !73
  %48 = icmp sgt i32 %47, 0
  br i1 %48, label %49, label %_Z18gmx_ana_index_copyP15gmx_ana_index_tS0_b.exit

49:                                               ; preds = %._crit_edge
  %50 = load ptr, ptr %5, align 8, !tbaa !108
  %51 = getelementptr inbounds nuw i8, ptr %3, i64 8
  %52 = load ptr, ptr %51, align 8, !tbaa !108
  %53 = zext nneg i32 %47 to i64
  %54 = shl nuw nsw i64 %53, 2
  tail call void @llvm.memcpy.p0.p0.i64(ptr align 4 %50, ptr align 4 %52, i64 %54, i1 false)
  br label %_Z18gmx_ana_index_copyP15gmx_ana_index_tS0_b.exit

_Z18gmx_ana_index_copyP15gmx_ana_index_tS0_b.exit: ; preds = %._crit_edge, %49
  ret void
}